; Function Attrs: mustprogress null_pointer_is_valid sspstrong uwtable
define void @_ZNK14InfoProxyModel11mapToSourceERK11QModelIndex(ptr dead_on_unwind noalias writable sret(%class.QModelIndex) align 8 %0, ptr noundef align 8 dereferenceable_or_null(48) %1, ptr noundef align 8 dereferenceable(24) %2) unnamed_addr #0 align 2 {
  %4 = alloca %class.QModelIndex, align 8
  %5 = load i32, ptr %2, align 8
  %6 = icmp sgt i32 %5, -1
  %7 = getelementptr inbounds nuw i8, ptr %2, i64 4
  %8 = load i32, ptr %7, align 4
  %9 = icmp sgt i32 %8, -1
  %or.cond = select i1 %6, i1 %9, i1 false
  %10 = getelementptr inbounds nuw i8, ptr %2, i64 16
  %11 = load ptr, ptr %10, align 8
  %12 = icmp ne ptr %11, null
  %or.cond8 = select i1 %or.cond, i1 %12, i1 false
  br i1 %or.cond8, label %15, label %_ZNK11QModelIndex7isValidEv.exit.thread

_ZNK11QModelIndex7isValidEv.exit.thread:          ; preds = %3
  store i32 -1, ptr %0, align 8
  %13 = getelementptr inbounds nuw i8, ptr %0, i64 4
  store i32 -1, ptr %13, align 4
  %14 = getelementptr inbounds nuw i8, ptr %0, i64 8
  tail call void @llvm.memset.p0.i64(ptr noundef nonnull align 8 dereferenceable(16) %14, i8 0, i64 16, i1 false)
  br label %27

15:                                               ; preds = %3
  %16 = tail call noundef ptr @_ZNK19QAbstractProxyModel11sourceModelEv(ptr noundef align 8 dereferenceable_or_null(16) %1)
  call void @llvm.lifetime.start.p0(i64 24, ptr nonnull %4) #15
  store i32 -1, ptr %4, align 8
  %17 = getelementptr inbounds nuw i8, ptr %4, i64 4
  store i32 -1, ptr %17, align 4
  %18 = getelementptr inbounds nuw i8, ptr %4, i64 8
  call void @llvm.memset.p0.i64(ptr noundef nonnull align 8 dereferenceable(16) %18, i8 0, i64 16, i1 false)
  %19 = load ptr, ptr %16, align 8
  %20 = getelementptr inbounds nuw i8, ptr %19, i64 120
  %21 = load ptr, ptr %20, align 8
  %22 = call noundef i32 %21(ptr noundef align 8 dereferenceable_or_null(16) %16, ptr noundef nonnull align 8 dereferenceable(24) %4)
  %.not = icmp slt i32 %5, %22
  call void @llvm.lifetime.end.p0(i64 24, ptr nonnull %4) #15
  br i1 %.not, label %26, label %23

23:                                               ; preds = %15
  store i32 -1, ptr %0, align 8
  %24 = getelementptr inbounds nuw i8, ptr %0, i64 4
  store i32 -1, ptr %24, align 4
  %25 = getelementptr inbounds nuw i8, ptr %0, i64 8
  call void @llvm.memset.p0.i64(ptr noundef nonnull align 8 dereferenceable(16) %25, i8 0, i64 16, i1 false)
  br label %27

26:                                               ; preds = %15
  call void @_ZNK19QIdentityProxyModel11mapToSourceERK11QModelIndex(ptr dead_on_unwind writable sret(%class.QModelIndex) align 8 %0, ptr noundef align 8 dereferenceable_or_null(16) %1, ptr noundef align 8 dereferenceable(24) %2)
  br label %27

27:                                               ; preds = %26, %23, %_ZNK11QModelIndex7isValidEv.exit.thread
  ret void
}